target datalayout = "e-m:e-p270:32:32-p271:32:32-p272:64:64-i64:64-i128:128-f80:128-n8:16:32:64-S128"
target triple = "x86_64-pc-linux-gnu"

%"class.std::basic_istream" = type { ptr, i64, %"class.std::basic_ios" }
%"class.std::basic_ios" = type { %"class.std::ios_base", ptr, i8, i8, ptr, ptr, ptr, ptr }
%"class.std::ios_base" = type { ptr, i64, i64, i32, i32, i32, ptr, %"struct.std::ios_base::_Words", [8 x %"struct.std::ios_base::_Words"], i32, ptr, %"class.std::locale" }
%"struct.std::ios_base::_Words" = type { ptr, i64 }
%"class.std::locale" = type { ptr }
%"class.std::basic_ostream" = type { ptr, %"class.std::basic_ios" }
%class.V3LexerBase = type <{ %class.FlexLexer.base, i32, i32, [4 x i8], ptr, %"class.std::basic_istream", %"class.std::basic_ostream", i8, [3 x i8], i32, ptr, i32, i32, i32, [4 x i8], i64, i64, ptr, i32, [4 x i8], ptr, ptr, ptr, ptr, ptr, i32, i32, i32, i32, i32, i32, i32, [4 x i8] }>
%class.FlexLexer.base = type <{ ptr, ptr, i32, i32, i32 }>

; Function Attrs: mustprogress uwtable
define dso_local noundef i32 @_ZN11V3LexerBase10LexerInputEPci(ptr noundef nonnull align 8 dereferenceable(732) %0, ptr noundef %1, i32 noundef %2) unnamed_addr #5 align 2 {
  %4 = alloca i32, align 4
  %5 = alloca ptr, align 8
  %6 = alloca ptr, align 8
  %7 = alloca i32, align 4
  store ptr %0, ptr %5, align 8
  store ptr %1, ptr %6, align 8
  store i32 %2, ptr %7, align 4
  %8 = load ptr, ptr %5, align 8
  %9 = getelementptr inbounds %class.V3LexerBase, ptr %8, i32 0, i32 5
  %10 = load ptr, ptr %9, align 8
  %11 = getelementptr i8, ptr %10, i64 -24
  %12 = load i64, ptr %11, align 8
  %13 = getelementptr inbounds i8, ptr %9, i64 %12
  %14 = call noundef zeroext i1 @_ZNKSt9basic_iosIcSt11char_traitsIcEE3eofEv(ptr noundef nonnull align 8 dereferenceable(264) %13)
  br i1 %14, label %22, label %15

15:                                               ; preds = %3
  %16 = getelementptr inbounds %class.V3LexerBase, ptr %8, i32 0, i32 5
  %17 = load ptr, ptr %16, align 8
  %18 = getelementptr i8, ptr %17, i64 -24
  %19 = load i64, ptr %18, align 8
  %20 = getelementptr inbounds i8, ptr %16, i64 %19
  %21 = call noundef zeroext i1 @_ZNKSt9basic_iosIcSt11char_traitsIcEE4failEv(ptr noundef nonnull align 8 dereferenceable(264) %20)
  br i1 %21, label %22, label %23

22:                                               ; preds = %15, %3
  store i32 0, ptr %4, align 4
  br label %44

23:                                               ; preds = %15
  %24 = getelementptr inbounds %class.V3LexerBase, ptr %8, i32 0, i32 5
  %25 = load ptr, ptr %6, align 8
  %26 = getelementptr inbounds i8, ptr %25, i64 0
  %27 = call noundef nonnull align 8 dereferenceable(16) ptr @_ZNSi3getERc(ptr noundef nonnull align 8 dereferenceable(16) %24, ptr noundef nonnull align 1 dereferenceable(1) %26)
  %28 = getelementptr inbounds %class.V3LexerBase, ptr %8, i32 0, i32 5
  %29 = load ptr, ptr %28, align 8
  %30 = getelementptr i8, ptr %29, i64 -24
  %31 = load i64, ptr %30, align 8
  %32 = getelementptr inbounds i8, ptr %28, i64 %31
  %33 = call noundef zeroext i1 @_ZNKSt9basic_iosIcSt11char_traitsIcEE3eofEv(ptr noundef nonnull align 8 dereferenceable(264) %32)
  br i1 %33, label %34, label %35

34:                                               ; preds = %23
  store i32 0, ptr %4, align 4
  br label %44

35:                                               ; preds = %23
  %36 = getelementptr inbounds %class.V3LexerBase, ptr %8, i32 0, i32 5
  %37 = load ptr, ptr %36, align 8
  %38 = getelementptr i8, ptr %37, i64 -24
  %39 = load i64, ptr %38, align 8
  %40 = getelementptr inbounds i8, ptr %36, i64 %39
  %41 = call noundef zeroext i1 @_ZNKSt9basic_iosIcSt11char_traitsIcEE3badEv(ptr noundef nonnull align 8 dereferenceable(264) %40)
  br i1 %41, label %42, label %43

42:                                               ; preds = %35
  store i32 -1, ptr %4, align 4
  br label %44

43:                                               ; preds = %35
  store i32 1, ptr %4, align 4
  br label %44

44:                                               ; preds = %43, %42, %34, %22
  %45 = load i32, ptr %4, align 4
  ret i32 %45
}