; Function Attrs: mustprogress uwtable
define dso_local noundef i32 @_ZN11V3LexerBase10LexerInputEPci(ptr noundef nonnull align 8 dereferenceable(732) %0, ptr noundef %1, i32 %2) unnamed_addr #4 align 2 {
  %4 = getelementptr inbounds i8, ptr %0, i64 48
  %5 = load ptr, ptr %4, align 8
  %6 = getelementptr i8, ptr %5, i64 -24
  %7 = load i64, ptr %6, align 8
  %8 = getelementptr inbounds i8, ptr %4, i64 %7
  %9 = tail call noundef zeroext i1 @_ZNKSt9basic_iosIcSt11char_traitsIcEE3eofEv(ptr noundef nonnull align 8 dereferenceable(264) %8)
  br i1 %9, label %29, label %10

10:                                               ; preds = %3
  %11 = load ptr, ptr %4, align 8
  %12 = getelementptr i8, ptr %11, i64 -24
  %13 = load i64, ptr %12, align 8
  %14 = getelementptr inbounds i8, ptr %4, i64 %13
  %15 = tail call noundef zeroext i1 @_ZNKSt9basic_iosIcSt11char_traitsIcEE4failEv(ptr noundef nonnull align 8 dereferenceable(264) %14)
  br i1 %15, label %29, label %16

16:                                               ; preds = %10
  %17 = tail call noundef nonnull align 8 dereferenceable(16) ptr @_ZNSi3getERc(ptr noundef nonnull align 8 dereferenceable(16) %4, ptr noundef nonnull align 1 dereferenceable(1) %1)
  %18 = load ptr, ptr %4, align 8
  %19 = getelementptr i8, ptr %18, i64 -24
  %20 = load i64, ptr %19, align 8
  %21 = getelementptr inbounds i8, ptr %4, i64 %20
  %22 = tail call noundef zeroext i1 @_ZNKSt9basic_iosIcSt11char_traitsIcEE3eofEv(ptr noundef nonnull align 8 dereferenceable(264) %21)
  br i1 %22, label %29, label %23

23:                                               ; preds = %16
  %24 = load ptr, ptr %4, align 8
  %25 = getelementptr i8, ptr %24, i64 -24
  %26 = load i64, ptr %25, align 8
  %27 = getelementptr inbounds i8, ptr %4, i64 %26
  %28 = tail call noundef zeroext i1 @_ZNKSt9basic_iosIcSt11char_traitsIcEE3badEv(ptr noundef nonnull align 8 dereferenceable(264) %27)
  %. = select i1 %28, i32 -1, i32 1
  br label %29

29:                                               ; preds = %23, %16, %3, %10
  %.0 = phi i32 [ 0, %10 ], [ 0, %3 ], [ 0, %16 ], [ %., %23 ]
  ret i32 %.0
}